target datalayout = "e-m:e-p270:32:32-p271:32:32-p272:64:64-i64:64-i128:128-f80:128-n8:16:32:64-S128"
target triple = "x86_64-pc-linux-gnu"

%"class.std::basic_string_view" = type { i64, ptr }
%"struct.nix::ServeProto::BuildOptions" = type <{ i64, i64, i64, i64, i8, i8, [6 x i8] }>

@.str.81 = private unnamed_addr constant [18 x i8] c"build-options-2.1\00", align 1

; Function Attrs: mustprogress nounwind uwtable
define linkonce_odr noundef i64 @_ZNSt11char_traitsIcE6lengthEPKc(ptr noundef %0) #4 comdat align 2 {
  %2 = alloca ptr, align 8
  store ptr %0, ptr %2, align 8
  %3 = load ptr, ptr %2, align 8
  %4 = call i64 @strlen(ptr noundef %3) #3
  ret i64 %4
}

; Function Attrs: mustprogress nounwind uwtable
define linkonce_odr void @_ZNSt17basic_string_viewIcSt11char_traitsIcEEC2EPKc(ptr noundef nonnull align 8 dereferenceable(16) %0, ptr noundef nonnull %1) unnamed_addr #4 comdat align 2 {
  %3 = alloca ptr, align 8
  %4 = alloca ptr, align 8
  store ptr %0, ptr %3, align 8
  store ptr %1, ptr %4, align 8
  %5 = load ptr, ptr %3, align 8
  %6 = getelementptr inbounds %"class.std::basic_string_view", ptr %5, i32 0, i32 0
  %7 = load ptr, ptr %4, align 8
  %8 = call noundef i64 @_ZNSt11char_traitsIcE6lengthEPKc(ptr noundef %7)
  store i64 %8, ptr %6, align 8
  %9 = getelementptr inbounds %"class.std::basic_string_view", ptr %5, i32 0, i32 1
  %10 = load ptr, ptr %4, align 8
  store ptr %10, ptr %9, align 8
  ret void
}

; Function Attrs: mustprogress uwtable
define void @_ZN3nix42ServeProtoTest_build_options_2_1_read_Test8TestBodyEv(ptr noundef nonnull align 8 dereferenceable(68) %0) unnamed_addr #5 align 2 {
  %2 = alloca ptr, align 8
  %3 = alloca %"class.std::basic_string_view", align 8
  %4 = alloca %"struct.nix::ServeProto::BuildOptions", align 8
  store ptr %0, ptr %2, align 8
  %5 = load ptr, ptr %2, align 8
  call void @_ZNSt17basic_string_viewIcSt11char_traitsIcEEC2EPKc(ptr noundef nonnull align 8 dereferenceable(16) %3, ptr noundef @.str.81) #3
  %6 = getelementptr inbounds %"struct.nix::ServeProto::BuildOptions", ptr %4, i32 0, i32 0
  store i64 5, ptr %6, align 8
  %7 = getelementptr inbounds %"struct.nix::ServeProto::BuildOptions", ptr %4, i32 0, i32 1
  store i64 6, ptr %7, align 8
  %8 = getelementptr inbounds %"struct.nix::ServeProto::BuildOptions", ptr %4, i32 0, i32 2
  store i64 -1, ptr %8, align 8
  %9 = getelementptr inbounds %"struct.nix::ServeProto::BuildOptions", ptr %4, i32 0, i32 3
  store i64 -1, ptr %9, align 8
  %10 = getelementptr inbounds %"struct.nix::ServeProto::BuildOptions", ptr %4, i32 0, i32 4
  store i8 1, ptr %10, align 8
  %11 = getelementptr inbounds %"struct.nix::ServeProto::BuildOptions", ptr %4, i32 0, i32 5
  store i8 1, ptr %11, align 1
  %12 = getelementptr inbounds { i64, ptr }, ptr %3, i32 0, i32 0
  %13 = load i64, ptr %12, align 8
  %14 = getelementptr inbounds { i64, ptr }, ptr %3, i32 0, i32 1
  %15 = load ptr, ptr %14, align 8
  call void @_ZN3nix18VersionedProtoTestINS_10ServeProtoEXadsoKcL_ZNS_L13serveProtoDirEEEEE13readProtoTestINS1_12BuildOptionsEEEvSt17basic_string_viewIcSt11char_traitsIcEEjT_(ptr noundef nonnull align 8 dereferenceable(64) %5, i64 %13, ptr %15, i32 noundef 513, ptr noundef byval(%"struct.nix::ServeProto::BuildOptions") align 8 %4)
  ret void
}